(lp0
(I1
(lp1
(I0
I0
tp2
a(I1
I0
tp3
atp4
a(I11
(lp5
(I2
I0
tp6
a(I3
I0
tp7
atp8
a(I2
(lp9
(I4
I0
tp10
a(I5
I0
tp11
atp12
a(I11
(lp13
(I3
I1
tp14
a(I4
I1
tp15
a(I5
I1
tp16
atp17
a(I3
(lp18
(I2
I1
tp19
a(I2
I2
tp20
atp21
a(I6
(lp22
(I1
I1
tp23
a(I1
I2
tp24
atp25
a(I2
(lp26
(I0
I1
tp27
a(I0
I2
tp28
atp29
a(I4
(lp30
(I0
I3
tp31
a(I0
I4
tp32
atp33
a(I1
(lp34
(I1
I3
tp35
a(I1
I4
tp36
atp37
a(I1
(lp38
(I0
I5
tp39
a(I1
I5
tp40
atp41
a(I2
(lp42
(I2
I3
tp43
a(I3
I3
tp44
atp45
a(I2
(lp46
(I2
I4
tp47
a(I3
I4
tp48
atp49
a(I2
(lp50
(I2
I5
tp51
a(I3
I5
tp52
atp53
a(I2
(lp54
(I4
I5
tp55
a(I5
I5
tp56
atp57
a(I5
(lp58
(I3
I2
tp59
a(I4
I2
tp60
atp61
a(I2
(lp62
(I4
I3
tp63
a(I4
I4
tp64
atp65
a(I18
(lp66
(I5
I2
tp67
a(I5
I3
tp68
a(I5
I4
tp69
atp70
a.